target datalayout = "e-m:e-p270:32:32-p271:32:32-p272:64:64-i64:64-i128:128-f80:128-n8:16:32:64-S128"
target triple = "x86_64-pc-linux-gnu"

%struct.gmx_sparsematrix = type { i8, i32, ptr, ptr, ptr }
%struct.gmx_sparsematrix_entry = type { i32, float }

@.str.6 = private unnamed_addr constant [7 x i8] c" %6.3f\00", align 1
@.str.7 = private unnamed_addr constant [2 x i8] c"\0A\00", align 1

; Function Attrs: mustprogress nounwind uwtable
define void @_Z22gmx_sparsematrix_printP8_IO_FILEP16gmx_sparsematrix(ptr noundef %0, ptr noundef %1) #3 {
  %3 = alloca ptr, align 8
  %4 = alloca ptr, align 8
  %5 = alloca i32, align 4
  %6 = alloca i32, align 4
  %7 = alloca i32, align 4
  store ptr %0, ptr %3, align 8, !tbaa !37
  store ptr %1, ptr %4, align 8, !tbaa !7
  call void @llvm.lifetime.start.p0(i64 4, ptr %5) #7
  call void @llvm.lifetime.start.p0(i64 4, ptr %6) #7
  call void @llvm.lifetime.start.p0(i64 4, ptr %7) #7
  store i32 0, ptr %5, align 4, !tbaa !3
  br label %8

8:                                                ; preds = %102, %2
  %9 = load i32, ptr %5, align 4, !tbaa !3
  %10 = load ptr, ptr %4, align 8, !tbaa !7
  %11 = getelementptr inbounds nuw %struct.gmx_sparsematrix, ptr %10, i32 0, i32 1
  %12 = load i32, ptr %11, align 4, !tbaa !10
  %13 = icmp slt i32 %9, %12
  br i1 %13, label %14, label %105

14:                                               ; preds = %8
  %15 = load ptr, ptr %4, align 8, !tbaa !7
  %16 = getelementptr inbounds nuw %struct.gmx_sparsematrix, ptr %15, i32 0, i32 2
  %17 = load ptr, ptr %16, align 8, !tbaa !16
  %18 = load i32, ptr %5, align 4, !tbaa !3
  %19 = sext i32 %18 to i64
  %20 = getelementptr inbounds i32, ptr %17, i64 %19
  %21 = load i32, ptr %20, align 4, !tbaa !3
  %22 = icmp eq i32 %21, 0
  br i1 %22, label %23, label %37

23:                                               ; preds = %14
  store i32 0, ptr %6, align 4, !tbaa !3
  br label %24

24:                                               ; preds = %33, %23
  %25 = load i32, ptr %6, align 4, !tbaa !3
  %26 = load ptr, ptr %4, align 8, !tbaa !7
  %27 = getelementptr inbounds nuw %struct.gmx_sparsematrix, ptr %26, i32 0, i32 1
  %28 = load i32, ptr %27, align 4, !tbaa !10
  %29 = icmp slt i32 %25, %28
  br i1 %29, label %30, label %36

30:                                               ; preds = %24
  %31 = load ptr, ptr %3, align 8, !tbaa !37
  %32 = call i32 (ptr, ptr, ...) @fprintf(ptr noundef %31, ptr noundef @.str.6, double noundef 0.000000e+00) #7
  br label %33

33:                                               ; preds = %30
  %34 = load i32, ptr %6, align 4, !tbaa !3
  %35 = add nsw i32 %34, 1
  store i32 %35, ptr %6, align 4, !tbaa !3
  br label %24, !llvm.loop !39

36:                                               ; preds = %24
  br label %99

37:                                               ; preds = %14
  store i32 0, ptr %7, align 4, !tbaa !3
  store i32 0, ptr %6, align 4, !tbaa !3
  br label %38

38:                                               ; preds = %84, %37
  %39 = load i32, ptr %6, align 4, !tbaa !3
  %40 = load ptr, ptr %4, align 8, !tbaa !7
  %41 = getelementptr inbounds nuw %struct.gmx_sparsematrix, ptr %40, i32 0, i32 2
  %42 = load ptr, ptr %41, align 8, !tbaa !16
  %43 = load i32, ptr %5, align 4, !tbaa !3
  %44 = sext i32 %43 to i64
  %45 = getelementptr inbounds i32, ptr %42, i64 %44
  %46 = load i32, ptr %45, align 4, !tbaa !3
  %47 = icmp slt i32 %39, %46
  br i1 %47, label %48, label %87

48:                                               ; preds = %38
  br label %49

49:                                               ; preds = %65, %48
  %50 = load i32, ptr %7, align 4, !tbaa !3
  %51 = add nsw i32 %50, 1
  store i32 %51, ptr %7, align 4, !tbaa !3
  %52 = load ptr, ptr %4, align 8, !tbaa !7
  %53 = getelementptr inbounds nuw %struct.gmx_sparsematrix, ptr %52, i32 0, i32 4
  %54 = load ptr, ptr %53, align 8, !tbaa !18
  %55 = load i32, ptr %5, align 4, !tbaa !3
  %56 = sext i32 %55 to i64
  %57 = getelementptr inbounds ptr, ptr %54, i64 %56
  %58 = load ptr, ptr %57, align 8, !tbaa !19
  %59 = load i32, ptr %6, align 4, !tbaa !3
  %60 = sext i32 %59 to i64
  %61 = getelementptr inbounds %struct.gmx_sparsematrix_entry, ptr %58, i64 %60
  %62 = getelementptr inbounds nuw %struct.gmx_sparsematrix_entry, ptr %61, i32 0, i32 0
  %63 = load i32, ptr %62, align 4, !tbaa !40
  %64 = icmp slt i32 %50, %63
  br i1 %64, label %65, label %68

65:                                               ; preds = %49
  %66 = load ptr, ptr %3, align 8, !tbaa !37
  %67 = call i32 (ptr, ptr, ...) @fprintf(ptr noundef %66, ptr noundef @.str.6, double noundef 0.000000e+00) #7
  br label %49, !llvm.loop !43

68:                                               ; preds = %49
  %69 = load ptr, ptr %3, align 8, !tbaa !37
  %70 = load ptr, ptr %4, align 8, !tbaa !7
  %71 = getelementptr inbounds nuw %struct.gmx_sparsematrix, ptr %70, i32 0, i32 4
  %72 = load ptr, ptr %71, align 8, !tbaa !18
  %73 = load i32, ptr %5, align 4, !tbaa !3
  %74 = sext i32 %73 to i64
  %75 = getelementptr inbounds ptr, ptr %72, i64 %74
  %76 = load ptr, ptr %75, align 8, !tbaa !19
  %77 = load i32, ptr %6, align 4, !tbaa !3
  %78 = sext i32 %77 to i64
  %79 = getelementptr inbounds %struct.gmx_sparsematrix_entry, ptr %76, i64 %78
  %80 = getelementptr inbounds nuw %struct.gmx_sparsematrix_entry, ptr %79, i32 0, i32 1
  %81 = load float, ptr %80, align 4, !tbaa !44
  %82 = fpext float %81 to double
  %83 = call i32 (ptr, ptr, ...) @fprintf(ptr noundef %69, ptr noundef @.str.6, double noundef %82) #7
  br label %84

84:                                               ; preds = %68
  %85 = load i32, ptr %6, align 4, !tbaa !3
  %86 = add nsw i32 %85, 1
  store i32 %86, ptr %6, align 4, !tbaa !3
  br label %38, !llvm.loop !45

87:                                               ; preds = %38
  br label %88

88:                                               ; preds = %95, %87
  %89 = load i32, ptr %7, align 4, !tbaa !3
  %90 = add nsw i32 %89, 1
  store i32 %90, ptr %7, align 4, !tbaa !3
  %91 = load ptr, ptr %4, align 8, !tbaa !7
  %92 = getelementptr inbounds nuw %struct.gmx_sparsematrix, ptr %91, i32 0, i32 1
  %93 = load i32, ptr %92, align 4, !tbaa !10
  %94 = icmp slt i32 %89, %93
  br i1 %94, label %95, label %98

95:                                               ; preds = %88
  %96 = load ptr, ptr %3, align 8, !tbaa !37
  %97 = call i32 (ptr, ptr, ...) @fprintf(ptr noundef %96, ptr noundef @.str.6, double noundef 0.000000e+00) #7
  br label %88, !llvm.loop !46

98:                                               ; preds = %88
  br label %99

99:                                               ; preds = %98, %36
  %100 = load ptr, ptr %3, align 8, !tbaa !37
  %101 = call i32 (ptr, ptr, ...) @fprintf(ptr noundef %100, ptr noundef @.str.7) #7
  br label %102

102:                                              ; preds = %99
  %103 = load i32, ptr %5, align 4, !tbaa !3
  %104 = add nsw i32 %103, 1
  store i32 %104, ptr %5, align 4, !tbaa !3
  br label %8, !llvm.loop !47

105:                                              ; preds = %8
  call void @llvm.lifetime.end.p0(i64 4, ptr %7) #7
  call void @llvm.lifetime.end.p0(i64 4, ptr %6) #7
  call void @llvm.lifetime.end.p0(i64 4, ptr %5) #7
  ret void
}