; Function Attrs: mustprogress nofree nounwind uwtable
define void @_Z22gmx_sparsematrix_printP8_IO_FILEP16gmx_sparsematrix(ptr noundef captures(none) %0, ptr noundef readonly captures(none) %1) local_unnamed_addr #1 {
  %3 = getelementptr inbounds nuw i8, ptr %1, i64 4
  %4 = load i32, ptr %3, align 4, !tbaa !3
  %5 = icmp sgt i32 %4, 0
  br i1 %5, label %.lr.ph45, label %._crit_edge46

.lr.ph45:                                         ; preds = %2
  %6 = getelementptr inbounds nuw i8, ptr %1, i64 8
  %7 = getelementptr inbounds nuw i8, ptr %1, i64 24
  br label %8

8:                                                ; preds = %.lr.ph45, %.loopexit
  %9 = phi i32 [ %4, %.lr.ph45 ], [ %51, %.loopexit ]
  %indvars.iv50 = phi i64 [ 0, %.lr.ph45 ], [ %indvars.iv.next51, %.loopexit ]
  %10 = load ptr, ptr %6, align 8, !tbaa !15
  %11 = getelementptr inbounds nuw i32, ptr %10, i64 %indvars.iv50
  %12 = load i32, ptr %11, align 4, !tbaa !17
  %13 = icmp eq i32 %12, 0
  br i1 %13, label %.preheader28, label %.preheader31

.preheader31:                                     ; preds = %8
  %14 = icmp sgt i32 %12, 0
  br i1 %14, label %.preheader, label %.preheader29

.preheader28:                                     ; preds = %8
  %15 = icmp sgt i32 %9, 0
  br i1 %15, label %.lr.ph42, label %.loopexit

.lr.ph42:                                         ; preds = %.preheader28, %.lr.ph42
  %.02541 = phi i32 [ %17, %.lr.ph42 ], [ 0, %.preheader28 ]
  %16 = tail call i32 (ptr, ptr, ...) @fprintf(ptr noundef %0, ptr noundef nonnull @.str.6, double noundef 0.000000e+00) #13
  %17 = add nuw nsw i32 %.02541, 1
  %18 = load i32, ptr %3, align 4, !tbaa !3
  %19 = icmp slt i32 %17, %18
  br i1 %19, label %.lr.ph42, label %.loopexit, !llvm.loop !24

.preheader29.loopexit:                            ; preds = %._crit_edge
  %.pre = load i32, ptr %3, align 4, !tbaa !3
  br label %.preheader29

.preheader29:                                     ; preds = %.preheader29.loopexit, %.preheader31
  %20 = phi i32 [ %9, %.preheader31 ], [ %.pre, %.preheader29.loopexit ]
  %.0.lcssa = phi i32 [ 0, %.preheader31 ], [ %.lcssa32, %.preheader29.loopexit ]
  %21 = icmp slt i32 %.0.lcssa, %20
  br i1 %21, label %.lr.ph40, label %.loopexit

.preheader:                                       ; preds = %.preheader31, %._crit_edge
  %indvars.iv = phi i64 [ %indvars.iv.next, %._crit_edge ], [ 0, %.preheader31 ]
  %.038 = phi i32 [ %.lcssa32, %._crit_edge ], [ 0, %.preheader31 ]
  %22 = add nsw i32 %.038, 1
  %23 = load ptr, ptr %7, align 8, !tbaa !22
  %24 = getelementptr inbounds nuw ptr, ptr %23, i64 %indvars.iv50
  %25 = load ptr, ptr %24, align 8, !tbaa !18
  %26 = getelementptr inbounds nuw %struct.gmx_sparsematrix_entry, ptr %25, i64 %indvars.iv
  %27 = load i32, ptr %26, align 4, !tbaa !25
  %28 = icmp slt i32 %.038, %27
  br i1 %28, label %.lr.ph, label %._crit_edge

.lr.ph:                                           ; preds = %.preheader, %.lr.ph
  %29 = phi i32 [ %31, %.lr.ph ], [ %22, %.preheader ]
  %30 = tail call i32 (ptr, ptr, ...) @fprintf(ptr noundef %0, ptr noundef nonnull @.str.6, double noundef 0.000000e+00) #13
  %31 = add nsw i32 %29, 1
  %32 = load ptr, ptr %7, align 8, !tbaa !22
  %33 = getelementptr inbounds nuw ptr, ptr %32, i64 %indvars.iv50
  %34 = load ptr, ptr %33, align 8, !tbaa !18
  %35 = getelementptr inbounds nuw %struct.gmx_sparsematrix_entry, ptr %34, i64 %indvars.iv
  %36 = load i32, ptr %35, align 4, !tbaa !25
  %37 = icmp slt i32 %29, %36
  br i1 %37, label %.lr.ph, label %._crit_edge, !llvm.loop !28

._crit_edge:                                      ; preds = %.lr.ph, %.preheader
  %.lcssa33 = phi ptr [ %25, %.preheader ], [ %34, %.lr.ph ]
  %.lcssa32 = phi i32 [ %22, %.preheader ], [ %31, %.lr.ph ]
  %38 = getelementptr inbounds nuw %struct.gmx_sparsematrix_entry, ptr %.lcssa33, i64 %indvars.iv, i32 1
  %39 = load float, ptr %38, align 4, !tbaa !29
  %40 = fpext float %39 to double
  %41 = tail call i32 (ptr, ptr, ...) @fprintf(ptr noundef %0, ptr noundef nonnull @.str.6, double noundef %40) #13
  %indvars.iv.next = add nuw nsw i64 %indvars.iv, 1
  %42 = load ptr, ptr %6, align 8, !tbaa !15
  %43 = getelementptr inbounds nuw i32, ptr %42, i64 %indvars.iv50
  %44 = load i32, ptr %43, align 4, !tbaa !17
  %45 = sext i32 %44 to i64
  %46 = icmp slt i64 %indvars.iv.next, %45
  br i1 %46, label %.preheader, label %.preheader29.loopexit, !llvm.loop !30

.lr.ph40:                                         ; preds = %.preheader29, %.lr.ph40
  %.239 = phi i32 [ %47, %.lr.ph40 ], [ %.0.lcssa, %.preheader29 ]
  %47 = add nsw i32 %.239, 1
  %48 = tail call i32 (ptr, ptr, ...) @fprintf(ptr noundef %0, ptr noundef nonnull @.str.6, double noundef 0.000000e+00) #13
  %49 = load i32, ptr %3, align 4, !tbaa !3
  %50 = icmp slt i32 %47, %49
  br i1 %50, label %.lr.ph40, label %.loopexit, !llvm.loop !31

.loopexit:                                        ; preds = %.lr.ph40, %.lr.ph42, %.preheader29, %.preheader28
  %fputc = tail call i32 @fputc(i32 10, ptr %0)
  %indvars.iv.next51 = add nuw nsw i64 %indvars.iv50, 1
  %51 = load i32, ptr %3, align 4, !tbaa !3
  %52 = sext i32 %51 to i64
  %53 = icmp slt i64 %indvars.iv.next51, %52
  br i1 %53, label %8, label %._crit_edge46, !llvm.loop !32

._crit_edge46:                                    ; preds = %.loopexit, %2
  ret void
}